target datalayout = "e-m:e-p270:32:32-p271:32:32-p272:64:64-i64:64-i128:128-f80:128-n8:16:32:64-S128"
target triple = "x86_64-pc-linux-gnu"

%struct.bf_key_st = type { [18 x i32], [1024 x i32] }

@.str.40 = private unnamed_addr constant [25 x i8] c"../openssl/test/bftest.c\00", align 1
@.str.44 = private unnamed_addr constant [21 x i8] c"&(cipher_data[n][0])\00", align 1
@.str.45 = private unnamed_addr constant [4 x i8] c"out\00", align 1
@.str.46 = private unnamed_addr constant [20 x i8] c"&(plain_data[n][0])\00", align 1

; Function Attrs: nounwind uwtable
define internal i32 @test_bf_ecb(i32 noundef %0) #0 {
  %2 = alloca i32, align 4
  %3 = alloca i32, align 4
  %4 = alloca %struct.bf_key_st, align 4
  %5 = alloca [8 x i8], align 1
  store i32 %0, ptr %2, align 4, !tbaa !4
  call void @llvm.lifetime.start.p0(i64 4, ptr %3) #6
  store i32 1, ptr %3, align 4, !tbaa !4
  call void @llvm.lifetime.start.p0(i64 4168, ptr %4) #6
  call void @llvm.lifetime.start.p0(i64 8, ptr %5) #6
  %6 = load i32, ptr %2, align 4, !tbaa !4
  %7 = sext i32 %6 to i64
  %8 = getelementptr inbounds [34 x [8 x i8]], ptr @ecb_data, i64 0, i64 %7
  %9 = getelementptr inbounds [8 x i8], ptr %8, i64 0, i64 0
  call void @BF_set_key(ptr noundef %4, i32 noundef 8, ptr noundef %9)
  %10 = load i32, ptr %2, align 4, !tbaa !4
  %11 = sext i32 %10 to i64
  %12 = getelementptr inbounds [34 x [8 x i8]], ptr @plain_data, i64 0, i64 %11
  %13 = getelementptr inbounds [8 x i8], ptr %12, i64 0, i64 0
  %14 = getelementptr inbounds [8 x i8], ptr %5, i64 0, i64 0
  call void @BF_ecb_encrypt(ptr noundef %13, ptr noundef %14, ptr noundef %4, i32 noundef 1)
  %15 = load i32, ptr %2, align 4, !tbaa !4
  %16 = sext i32 %15 to i64
  %17 = getelementptr inbounds [34 x [8 x i8]], ptr @cipher_data, i64 0, i64 %16
  %18 = getelementptr inbounds [8 x i8], ptr %17, i64 0, i64 0
  %19 = getelementptr inbounds [8 x i8], ptr %5, i64 0, i64 0
  %20 = call i32 @test_mem_eq(ptr noundef @.str.40, i32 noundef 325, ptr noundef @.str.44, ptr noundef @.str.45, ptr noundef %18, i64 noundef 8, ptr noundef %19, i64 noundef 8)
  %21 = icmp ne i32 %20, 0
  br i1 %21, label %23, label %22

22:                                               ; preds = %1
  store i32 0, ptr %3, align 4, !tbaa !4
  br label %23

23:                                               ; preds = %22, %1
  %24 = getelementptr inbounds [8 x i8], ptr %5, i64 0, i64 0
  %25 = getelementptr inbounds [8 x i8], ptr %5, i64 0, i64 0
  call void @BF_ecb_encrypt(ptr noundef %24, ptr noundef %25, ptr noundef %4, i32 noundef 0)
  %26 = load i32, ptr %2, align 4, !tbaa !4
  %27 = sext i32 %26 to i64
  %28 = getelementptr inbounds [34 x [8 x i8]], ptr @plain_data, i64 0, i64 %27
  %29 = getelementptr inbounds [8 x i8], ptr %28, i64 0, i64 0
  %30 = getelementptr inbounds [8 x i8], ptr %5, i64 0, i64 0
  %31 = call i32 @test_mem_eq(ptr noundef @.str.40, i32 noundef 329, ptr noundef @.str.46, ptr noundef @.str.45, ptr noundef %29, i64 noundef 8, ptr noundef %30, i64 noundef 8)
  %32 = icmp ne i32 %31, 0
  br i1 %32, label %34, label %33

33:                                               ; preds = %23
  store i32 0, ptr %3, align 4, !tbaa !4
  br label %34

34:                                               ; preds = %33, %23
  %35 = load i32, ptr %3, align 4, !tbaa !4
  call void @llvm.lifetime.end.p0(i64 8, ptr %5) #6
  call void @llvm.lifetime.end.p0(i64 4168, ptr %4) #6
  call void @llvm.lifetime.end.p0(i64 4, ptr %3) #6
  ret i32 %35
}