; Function Attrs: nounwind uwtable
define internal range(i32 0, 2) i32 @test_bf_ecb(i32 noundef %0) #1 {
  %2 = alloca %struct.bf_key_st, align 4
  %3 = alloca [8 x i8], align 1
  call void @llvm.lifetime.start.p0(i64 4168, ptr nonnull %2) #8
  call void @llvm.lifetime.start.p0(i64 8, ptr nonnull %3) #8
  %4 = sext i32 %0 to i64
  %5 = getelementptr inbounds [34 x [8 x i8]], ptr @ecb_data, i64 0, i64 %4
  call void @BF_set_key(ptr noundef nonnull %2, i32 noundef 8, ptr noundef nonnull %5) #8
  %6 = getelementptr inbounds [34 x [8 x i8]], ptr @plain_data, i64 0, i64 %4
  call void @BF_ecb_encrypt(ptr noundef nonnull %6, ptr noundef nonnull %3, ptr noundef nonnull %2, i32 noundef 1) #8
  %7 = getelementptr inbounds [34 x [8 x i8]], ptr @cipher_data, i64 0, i64 %4
  %8 = call i32 @test_mem_eq(ptr noundef nonnull @.str.40, i32 noundef 325, ptr noundef nonnull @.str.44, ptr noundef nonnull @.str.45, ptr noundef nonnull %7, i64 noundef 8, ptr noundef nonnull %3, i64 noundef 8) #8
  %.not = icmp ne i32 %8, 0
  call void @BF_ecb_encrypt(ptr noundef nonnull %3, ptr noundef nonnull %3, ptr noundef nonnull %2, i32 noundef 0) #8
  %9 = call i32 @test_mem_eq(ptr noundef nonnull @.str.40, i32 noundef 329, ptr noundef nonnull @.str.46, ptr noundef nonnull @.str.45, ptr noundef nonnull %6, i64 noundef 8, ptr noundef nonnull %3, i64 noundef 8) #8
  %.not5 = icmp ne i32 %9, 0
  %narrow = select i1 %.not5, i1 %.not, i1 false
  %.1 = zext i1 %narrow to i32
  call void @llvm.lifetime.end.p0(i64 8, ptr nonnull %3) #8
  call void @llvm.lifetime.end.p0(i64 4168, ptr nonnull %2) #8
  ret i32 %.1
}